target datalayout = "e-m:e-p270:32:32-p271:32:32-p272:64:64-i64:64-i128:128-f80:128-n8:16:32:64-S128"
target triple = "x86_64-pc-linux-gnu"

@VerifyGCType = external global ptr, align 8
@__const._ZN11G1Arguments29initialize_verification_typesEv.delimiter = private unnamed_addr constant [4 x i8] c" ,\0A\00", align 1

; Function Attrs: mustprogress nounwind uwtable
define hidden void @_ZN11G1Arguments29initialize_verification_typesEv() #1 align 2 {
  %1 = alloca [4 x i8], align 1
  %2 = alloca i64, align 8
  %3 = alloca ptr, align 8
  %4 = alloca ptr, align 8
  %5 = alloca ptr, align 8
  %6 = load ptr, ptr @VerifyGCType, align 8
  %7 = call i64 @strlen(ptr noundef %6) #11
  %8 = icmp ugt i64 %7, 0
  br i1 %8, label %9, label %33

9:                                                ; preds = %0
  call void @llvm.memcpy.p0.p0.i64(ptr align 1 %1, ptr align 1 @__const._ZN11G1Arguments29initialize_verification_typesEv.delimiter, i64 4, i1 false)
  %10 = load ptr, ptr @VerifyGCType, align 8
  %11 = call i64 @strlen(ptr noundef %10) #11
  store i64 %11, ptr %2, align 8
  %12 = load i64, ptr %2, align 8
  %13 = add i64 %12, 1
  %14 = mul i64 %13, 1
  %15 = call noundef ptr @_Z12AllocateHeapm8MEMFLAGSN17AllocFailStrategy13AllocFailEnumE(i64 noundef %14, i8 noundef zeroext 9, i32 noundef 0)
  store ptr %15, ptr %3, align 8
  %16 = load ptr, ptr %3, align 8
  %17 = load ptr, ptr @VerifyGCType, align 8
  %18 = load i64, ptr %2, align 8
  %19 = add i64 %18, 1
  %20 = call ptr @strncpy(ptr noundef %16, ptr noundef %17, i64 noundef %19) #12
  %21 = load ptr, ptr %3, align 8
  %22 = getelementptr inbounds [4 x i8], ptr %1, i64 0, i64 0
  %23 = call ptr @strtok_r(ptr noundef %21, ptr noundef %22, ptr noundef %4) #12
  store ptr %23, ptr %5, align 8
  br label %24

24:                                               ; preds = %27, %9
  %25 = load ptr, ptr %5, align 8
  %26 = icmp ne ptr %25, null
  br i1 %26, label %27, label %31

27:                                               ; preds = %24
  %28 = load ptr, ptr %5, align 8
  call void @_ZN11G1Arguments23parse_verification_typeEPKc(ptr noundef %28)
  %29 = getelementptr inbounds [4 x i8], ptr %1, i64 0, i64 0
  %30 = call ptr @strtok_r(ptr noundef null, ptr noundef %29, ptr noundef %4) #12
  store ptr %30, ptr %5, align 8
  br label %24, !llvm.loop !6

31:                                               ; preds = %24
  %32 = load ptr, ptr %3, align 8
  call void @_Z8FreeHeapPv(ptr noundef %32)
  br label %33

33:                                               ; preds = %31, %0
  ret void
}