; Function Attrs: mustprogress nounwind uwtable
define hidden void @_ZN11G1Arguments29initialize_verification_typesEv() local_unnamed_addr #0 align 2 {
  %1 = alloca ptr, align 8
  %2 = load ptr, ptr @VerifyGCType, align 8
  %char0 = load i8, ptr %2, align 1
  %.not = icmp eq i8 %char0, 0
  br i1 %.not, label %11, label %3

3:                                                ; preds = %0
  %4 = tail call i64 @strlen(ptr noundef nonnull dereferenceable(1) %2) #14
  %5 = add i64 %4, 1
  %6 = tail call noundef ptr @_Z12AllocateHeapm8MEMFLAGSN17AllocFailStrategy13AllocFailEnumE(i64 noundef %5, i8 noundef zeroext 9, i32 noundef 0) #13
  %7 = load ptr, ptr @VerifyGCType, align 8
  %8 = tail call ptr @strncpy(ptr noundef %6, ptr noundef %7, i64 noundef %5) #13
  %9 = call ptr @strtok_r(ptr noundef %6, ptr noundef nonnull @__const._ZN11G1Arguments29initialize_verification_typesEv.delimiter, ptr noundef nonnull %1) #13
  %.not67 = icmp eq ptr %9, null
  br i1 %.not67, label %._crit_edge, label %.lr.ph

.lr.ph:                                           ; preds = %3, %.lr.ph
  %.08 = phi ptr [ %10, %.lr.ph ], [ %9, %3 ]
  call void @_ZN11G1Arguments23parse_verification_typeEPKc(ptr noundef nonnull %.08)
  %10 = call ptr @strtok_r(ptr noundef null, ptr noundef nonnull @__const._ZN11G1Arguments29initialize_verification_typesEv.delimiter, ptr noundef nonnull %1) #13
  %.not6 = icmp eq ptr %10, null
  br i1 %.not6, label %._crit_edge, label %.lr.ph, !llvm.loop !6

._crit_edge:                                      ; preds = %.lr.ph, %3
  call void @_Z8FreeHeapPv(ptr noundef %6) #13
  br label %11

11:                                               ; preds = %._crit_edge, %0
  ret void
}